target datalayout = "e-m:e-p270:32:32-p271:32:32-p272:64:64-i64:64-i128:128-f80:128-n8:16:32:64-S128"
target triple = "x86_64-pc-linux-gnu"

@.str.9 = private unnamed_addr constant [47 x i8] c"Cannot find gate \22%s\22 in the current library.\0A\00", align 1

; Function Attrs: nounwind uwtable
define i32 @Io_ReadFinTypeMapped(ptr noundef %0, ptr noundef %1) #0 {
  %3 = alloca i32, align 4
  %4 = alloca ptr, align 8
  %5 = alloca ptr, align 8
  %6 = alloca ptr, align 8
  %7 = alloca i32, align 4
  store ptr %0, ptr %4, align 8, !tbaa !27
  store ptr %1, ptr %5, align 8, !tbaa !8
  call void @llvm.lifetime.start.p0(i64 8, ptr %6) #14
  %8 = load ptr, ptr %4, align 8, !tbaa !27
  %9 = load ptr, ptr %5, align 8, !tbaa !8
  %10 = call ptr @Mio_LibraryReadGateByName(ptr noundef %8, ptr noundef %9, ptr noundef null)
  store ptr %10, ptr %6, align 8, !tbaa !35
  %11 = load ptr, ptr %6, align 8, !tbaa !35
  %12 = icmp eq ptr %11, null
  br i1 %12, label %13, label %16

13:                                               ; preds = %2
  %14 = load ptr, ptr %5, align 8, !tbaa !8
  %15 = call i32 (ptr, ...) @printf(ptr noundef @.str.9, ptr noundef %14)
  store i32 -100, ptr %3, align 4
  store i32 1, ptr %7, align 4
  br label %19

16:                                               ; preds = %2
  %17 = load ptr, ptr %6, align 8, !tbaa !35
  %18 = call i32 @Mio_GateReadCell(ptr noundef %17)
  store i32 %18, ptr %3, align 4
  store i32 1, ptr %7, align 4
  br label %19

19:                                               ; preds = %16, %13
  call void @llvm.lifetime.end.p0(i64 8, ptr %6) #14
  %20 = load i32, ptr %3, align 4
  ret i32 %20
}