; Function Attrs: nounwind uwtable
define i32 @Io_ReadFinTypeMapped(ptr noundef %0, ptr noundef %1) local_unnamed_addr #0 {
  %3 = tail call ptr @Mio_LibraryReadGateByName(ptr noundef %0, ptr noundef %1, ptr noundef null) #32
  %4 = icmp eq ptr %3, null
  br i1 %4, label %5, label %7

5:                                                ; preds = %2
  %6 = tail call i32 (ptr, ...) @printf(ptr noundef nonnull dereferenceable(1) @.str.9, ptr noundef %1)
  br label %9

7:                                                ; preds = %2
  %8 = tail call i32 @Mio_GateReadCell(ptr noundef nonnull %3) #32
  br label %9

9:                                                ; preds = %7, %5
  %.0 = phi i32 [ -100, %5 ], [ %8, %7 ]
  ret i32 %.0
}